Certificate:
    Data:
        Version: 3 (0x2)
        Serial Number:
            3f:4a:c5:e1:fb:2e:75:59:77:75:bd:3e:5f:35:38:af:3a:42:f1:24
        Signature Algorithm: sha256WithRSAEncryption
        Issuer: C=US, ST=abc, L=abc, O=test, OU=mine, CN=CA/emailAddress=ca@example.org
        Validity
            Not Before: Jan  4 20:28:11 2022 GMT
            Not After : Jan  4 20:28:11 2023 GMT
        Subject: C=US, ST=abc, L=abc, O=test, OU=mine, CN=cert/emailAddress=cert@example.org
        Subject Public Key Info:
            Public Key Algorithm: rsaEncryption
                RSA Public-Key: (2048 bit)
                Modulus:
                    00:dd:cc:89:1c:93:4d:7d:6f:ba:2c:b1:42:2a:c3:
                    a9:8a:91:dc:8c:99:9a:39:ad:4f:57:72:82:25:46:
                    96:36:67:7d:e8:53:b7:dc:dd:1c:08:4b:25:b2:ab:
                    be:d2:fb:d1:12:8b:34:18:d2:59:47:ad:d5:d8:bd:
                    11:f3:d4:18:2a:61:62:79:d5:7c:8e:03:48:a4:f7:
                    71:d8:6e:f6:ad:74:76:e8:24:8d:87:35:6b:ad:8f:
                    b1:77:8f:3f:fe:8e:0b:8b:1c:07:32:55:0f:74:e9:
                    c9:3c:06:e1:39:a1:5e:6a:b6:c2:39:73:2b:8d:ad:
                    c1:c3:60:c8:d7:ac:9c:55:d8:de:0d:76:ef:9d:65:
                    14:51:28:00:55:86:6b:36:ae:1c:90:03:de:e9:2b:
                    a7:00:8b:c1:ec:42:96:b0:b3:fe:f4:77:05:94:e9:
                    3a:27:36:83:97:1e:13:d4:3f:cb:7e:b6:ef:d3:67:
                    5f:ff:79:64:4c:d7:d5:8b:7c:cd:56:42:28:72:24:
                    f1:bd:45:92:9c:e0:08:4b:9b:9e:96:6b:ce:dd:3e:
                    4c:74:23:af:dd:b0:d7:ac:72:06:af:02:3d:6a:bc:
                    ae:8f:8f:35:3d:e2:ac:3a:a0:f3:7c:fc:27:89:3d:
                    15:de:36:e1:57:a3:1d:94:ad:1b:54:4d:d0:9e:3b:
                    43:4d
                Exponent: 65537 (0x10001)
        X509v3 extensions:
            X509v3 Basic Constraints: 
                CA:FALSE
            Netscape Comment: 
                OpenSSL Generated Certificate
            X509v3 Subject Key Identifier: 
                16:27:1A:37:DB:FA:6B:60:B7:DC:36:ED:8F:C2:A0:A1:98:68:D0:57
            X509v3 Authority Key Identifier: 
                keyid:0C:9C:66:E1:94:05:DD:56:AA:03:51:A6:85:48:FC:E6:95:7A:2A:D2

    Signature Algorithm: sha256WithRSAEncryption
         4f:bc:99:63:20:f5:e6:a6:e6:28:10:f4:ad:98:aa:fd:14:79:
         d1:cd:65:d6:c1:31:32:dc:05:e5:2f:73:18:63:60:0a:ce:6a:
         15:07:94:e0:43:e8:fc:2a:72:09:9e:35:95:3a:0c:1f:3a:9d:
         11:3f:be:bf:ba:03:02:50:45:a8:06:01:12:ad:a0:ec:6e:67:
         a4:fb:4a:c6:4c:22:f5:d0:7e:a5:45:3e:dc:79:a0:c8:52:d1:
         15:69:d4:01:2a:a3:37:71:ad:9a:f8:3a:fe:2b:27:78:cf:46:
         b0:86:f6:0e:a5:86:c8:df:69:ca:ea:82:e0:c8:3c:a8:51:94:
         37:81:b1:96:d3:69:c1:db:ea:f0:da:34:38:53:c7:93:97:4c:
         eb:63:98:0f:d3:08:19:05:bc:21:16:05:3e:1d:be:3e:00:35:
         0d:67:14:92:9a:2f:33:05:fe:9e:07:d5:c7:a5:0e:ff:4e:5f:
         34:94:80:d2:42:cd:0d:cc:6c:10:14:c7:2d:79:7e:6d:87:ce:
         0a:1f:9f:c5:fa:67:4e:c2:4a:25:fb:cc:a3:12:e2:5c:86:71:
         60:e9:4c:5a:64:f1:f2:ac:4d:ae:f9:3d:14:5d:e2:4a:4d:6f:
         31:07:2e:b7:60:f0:2f:89:bc:45:f2:99:58:42:cd:85:c5:4a:
         d4:f3:77:8b
-----BEGIN CERTIFICATE-----
MIID8zCCAtugAwIBAgIUP0rF4fsudVl3db0+XzU4rzpC8SQwDQYJKoZIhvcNAQEL
BQAwczELMAkGA1UEBhMCVVMxDDAKBgNVBAgMA2FiYzEMMAoGA1UEBwwDYWJjMQ0w
CwYDVQQKDAR0ZXN0MQ0wCwYDVQQLDARtaW5lMQswCQYDVQQDDAJDQTEdMBsGCSqG
SIb3DQEJARYOY2FAZXhhbXBsZS5vcmcwHhcNMjIwMTA0MjAyODExWhcNMjMwMTA0
MjAyODExWjB3MQswCQYDVQQGEwJVUzEMMAoGA1UECAwDYWJjMQwwCgYDVQQHDANh
YmMxDTALBgNVBAoMBHRlc3QxDTALBgNVBAsMBG1pbmUxDTALBgNVBAMMBGNlcnQx
HzAdBgkqhkiG9w0BCQEWEGNlcnRAZXhhbXBsZS5vcmcwggEiMA0GCSqGSIb3DQEB
AQUAA4IBDwAwggEKAoIBAQDdzIkck019b7ossUIqw6mKkdyMmZo5rU9XcoIlRpY2
Z33oU7fc3RwISyWyq77S+9ESizQY0llHrdXYvRHz1BgqYWJ51XyOA0ik93HYbvat
dHboJI2HNWutj7F3jz/+jguLHAcyVQ906ck8BuE5oV5qtsI5cyuNrcHDYMjXrJxV
2N4Ndu+dZRRRKABVhms2rhyQA97pK6cAi8HsQpaws/70dwWU6TonNoOXHhPUP8t+
tu/TZ1//eWRM19WLfM1WQihyJPG9RZKc4AhLm56Wa87dPkx0I6/dsNescgavAj1q
vK6PjzU94qw6oPN8/CeJPRXeNuFXox2UrRtUTdCeO0NNAgMBAAGjezB5MAkGA1Ud
EwQCMAAwLAYJYIZIAYb4QgENBB8WHU9wZW5TU0wgR2VuZXJhdGVkIENlcnRpZmlj
YXRlMB0GA1UdDgQWBBQWJxo32/prYLfcNu2PwqChmGjQVzAfBgNVHSMEGDAWgBQM
nGbhlAXdVqoDUaaFSPzmlXoq0jANBgkqhkiG9w0BAQsFAAOCAQEAT7yZYyD15qbm
KBD0rZiq/RR50c1l1sExMtwF5S9zGGNgCs5qFQeU4EPo/CpyCZ41lToMHzqdET++
v7oDAlBFqAYBEq2g7G5npPtKxkwi9dB+pUU+3HmgyFLRFWnUASqjN3Gtmvg6/isn
eM9GsIb2DqWGyN9pyuqC4Mg8qFGUN4GxltNpwdvq8No0OFPHk5dM62OYD9MIGQW8
IRYFPh2+PgA1DWcUkpovMwX+ngfVx6UO/05fNJSA0kLNDcxsEBTHLXl+bYfOCh+f
xfpnTsJKJfvMoxLiXIZxYOlMWmTx8qxNrvk9FF3iSk1vMQcut2DwL4m8RfKZWELN
hcVK1PN3iw==
-----END CERTIFICATE-----
