Certificate:
    Data:
        Version: 3 (0x2)
        Serial Number:
            3f:4a:c5:e1:fb:2e:75:59:77:75:bd:3e:5f:35:38:af:3a:42:f1:22
        Signature Algorithm: sha256WithRSAEncryption
        Issuer: C=US, ST=abc, O=test, OU=mine, CN=RootCA/emailAddress=rootca@example.org
        Validity
            Not Before: Jan  4 20:27:59 2022 GMT
            Not After : Jan  3 20:27:59 2025 GMT
        Subject: C=US, ST=abc, O=test, OU=mine, CN=RootCA/emailAddress=rootca@example.org
        Subject Public Key Info:
            Public Key Algorithm: rsaEncryption
                RSA Public-Key: (2048 bit)
                Modulus:
                    00:df:3b:81:8e:a0:2f:7a:82:13:d0:dc:d6:c1:96:
                    15:38:65:b2:b3:eb:04:c1:29:e5:9a:db:a5:bc:b1:
                    be:07:07:78:be:0a:90:7c:5c:32:14:a1:ce:50:39:
                    a2:a8:b1:81:6a:d0:07:ca:3c:ab:fc:cc:0c:d0:a7:
                    f5:9e:f3:43:23:fb:9c:5e:9c:9a:e9:6e:80:7c:3c:
                    ee:46:f3:29:ae:75:12:10:eb:5f:25:3f:91:ad:94:
                    94:34:33:03:b7:83:7c:c7:c0:f5:c6:7f:b2:e0:ea:
                    89:ac:6d:0b:8c:ac:0b:df:8c:2c:5d:db:5e:94:42:
                    cf:e1:98:a9:4c:7e:23:e0:49:1d:b0:ac:4d:14:38:
                    2c:0a:68:0b:e2:12:5a:f7:e7:f4:1c:0a:88:fd:e5:
                    7d:8f:9e:bb:a9:2e:b3:c4:2c:cd:3a:05:14:de:16:
                    01:fa:ef:8e:ed:f6:34:c5:a5:16:1e:c0:05:7f:0f:
                    0a:06:8a:e9:97:39:28:76:91:eb:04:14:09:91:3d:
                    ec:d0:d2:c0:eb:8f:32:f0:68:5f:c6:9e:70:9e:37:
                    b3:85:7e:77:79:4a:44:4c:4d:84:c2:b7:dd:10:77:
                    68:88:c8:f7:73:e3:4f:fa:4d:9b:db:04:3a:d3:ce:
                    20:9c:59:17:bd:bd:8d:22:0d:da:bf:f5:20:f3:d4:
                    5d:0d
                Exponent: 65537 (0x10001)
        X509v3 extensions:
            X509v3 Subject Key Identifier: 
                08:64:AE:0D:62:56:DF:4F:65:90:2D:C8:48:58:6D:91:1A:E4:46:0F
            X509v3 Authority Key Identifier: 
                keyid:08:64:AE:0D:62:56:DF:4F:65:90:2D:C8:48:58:6D:91:1A:E4:46:0F

            X509v3 Basic Constraints: critical
                CA:TRUE
    Signature Algorithm: sha256WithRSAEncryption
         04:99:52:d5:19:5e:63:f2:d0:a3:67:49:4c:00:99:64:f0:67:
         da:42:88:2f:b4:2c:cf:6c:41:6b:a2:17:a0:46:aa:4d:b5:c6:
         17:05:e2:de:aa:47:6e:66:d1:cd:46:40:90:59:cc:67:cf:86:
         cd:c5:7f:56:39:33:c6:80:ef:7e:cf:db:47:07:a7:8e:3c:b2:
         e2:a7:ff:92:d1:ea:2e:fa:f5:21:c2:07:d4:02:41:f9:8e:1b:
         13:af:0e:4a:89:eb:b9:cf:39:e2:24:00:fb:aa:43:5a:53:16:
         d5:26:79:0d:4f:cd:f0:e7:54:e3:ea:2c:b5:50:7e:58:0d:59:
         65:48:e8:e4:b1:eb:a7:97:1a:a0:7f:9b:1c:28:eb:7a:78:65:
         3f:95:a8:98:f7:f1:43:92:3d:8a:7c:39:27:58:44:64:87:ba:
         44:58:7c:3d:b6:c7:8e:84:54:1b:22:74:26:e4:05:54:f0:90:
         e9:9e:f4:64:49:d3:93:8d:4b:12:9b:c1:41:05:9a:04:5c:53:
         a9:b2:07:75:04:a4:19:2d:f1:ce:c1:fe:db:b5:69:8d:da:f0:
         90:11:4b:33:4f:0a:16:9a:fd:82:50:18:b3:76:2c:0a:5f:b4:
         e2:c0:0f:9a:2e:a6:fc:cb:b7:46:0a:22:33:ad:61:f3:69:07:
         8d:15:55:22
-----BEGIN CERTIFICATE-----
MIIDuzCCAqOgAwIBAgIUP0rF4fsudVl3db0+XzU4rzpC8SIwDQYJKoZIhvcNAQEL
BQAwbTELMAkGA1UEBhMCVVMxDDAKBgNVBAgMA2FiYzENMAsGA1UECgwEdGVzdDEN
MAsGA1UECwwEbWluZTEPMA0GA1UEAwwGUm9vdENBMSEwHwYJKoZIhvcNAQkBFhJy
b290Y2FAZXhhbXBsZS5vcmcwHhcNMjIwMTA0MjAyNzU5WhcNMjUwMTAzMjAyNzU5
WjBtMQswCQYDVQQGEwJVUzEMMAoGA1UECAwDYWJjMQ0wCwYDVQQKDAR0ZXN0MQ0w
CwYDVQQLDARtaW5lMQ8wDQYDVQQDDAZSb290Q0ExITAfBgkqhkiG9w0BCQEWEnJv
b3RjYUBleGFtcGxlLm9yZzCCASIwDQYJKoZIhvcNAQEBBQADggEPADCCAQoCggEB
AN87gY6gL3qCE9Dc1sGWFThlsrPrBMEp5ZrbpbyxvgcHeL4KkHxcMhShzlA5oqix
gWrQB8o8q/zMDNCn9Z7zQyP7nF6cmulugHw87kbzKa51EhDrXyU/ka2UlDQzA7eD
fMfA9cZ/suDqiaxtC4ysC9+MLF3bXpRCz+GYqUx+I+BJHbCsTRQ4LApoC+ISWvfn
9BwKiP3lfY+eu6kus8QszToFFN4WAfrvju32NMWlFh7ABX8PCgaK6Zc5KHaR6wQU
CZE97NDSwOuPMvBoX8aecJ43s4V+d3lKRExNhMK33RB3aIjI93PjT/pNm9sEOtPO
IJxZF729jSIN2r/1IPPUXQ0CAwEAAaNTMFEwHQYDVR0OBBYEFAhkrg1iVt9PZZAt
yEhYbZEa5EYPMB8GA1UdIwQYMBaAFAhkrg1iVt9PZZAtyEhYbZEa5EYPMA8GA1Ud
EwEB/wQFMAMBAf8wDQYJKoZIhvcNAQELBQADggEBAASZUtUZXmPy0KNnSUwAmWTw
Z9pCiC+0LM9sQWuiF6BGqk21xhcF4t6qR25m0c1GQJBZzGfPhs3Ff1Y5M8aA737P
20cHp448suKn/5LR6i769SHCB9QCQfmOGxOvDkqJ67nPOeIkAPuqQ1pTFtUmeQ1P
zfDnVOPqLLVQflgNWWVI6OSx66eXGqB/mxwo63p4ZT+VqJj38UOSPYp8OSdYRGSH
ukRYfD22x46EVBsidCbkBVTwkOme9GRJ05ONSxKbwUEFmgRcU6myB3UEpBkt8c7B
/tu1aY3a8JARSzNPChaa/YJQGLN2LApftOLAD5oupvzLt0YKIjOtYfNpB40VVSI=
-----END CERTIFICATE-----
