Certificate:
    Data:
        Version: 3 (0x2)
        Serial Number:
            3f:4a:c5:e1:fb:2e:75:59:77:75:bd:3e:5f:35:38:af:3a:42:f1:22
        Signature Algorithm: sha256WithRSAEncryption
        Issuer: C=US, ST=abc, O=test, OU=mine, CN=RootCA/emailAddress=rootca@example.org
        Validity
            Not Before: Jan  4 20:27:59 2022 GMT
            Not After : Jan  3 20:27:59 2025 GMT
        Subject: C=US, ST=abc, O=test, OU=mine, CN=RootCA/emailAddress=rootca@example.org
        Subject Public Key Info:
            Public Key Algorithm: rsaEncryption
                RSA Public-Key: (2048 bit)
                Modulus:
                    00:df:3b:81:8e:a0:2f:7a:82:13:d0:dc:d6:c1:96:
                    15:38:65:b2:b3:eb:04:c1:29:e5:9a:db:a5:bc:b1:
                    be:07:07:78:be:0a:90:7c:5c:32:14:a1:ce:50:39:
                    a2:a8:b1:81:6a:d0:07:ca:3c:ab:fc:cc:0c:d0:a7:
                    f5:9e:f3:43:23:fb:9c:5e:9c:9a:e9:6e:80:7c:3c:
                    ee:46:f3:29:ae:75:12:10:eb:5f:25:3f:91:ad:94:
                    94:34:33:03:b7:83:7c:c7:c0:f5:c6:7f:b2:e0:ea:
                    89:ac:6d:0b:8c:ac:0b:df:8c:2c:5d:db:5e:94:42:
                    cf:e1:98:a9:4c:7e:23:e0:49:1d:b0:ac:4d:14:38:
                    2c:0a:68:0b:e2:12:5a:f7:e7:f4:1c:0a:88:fd:e5:
                    7d:8f:9e:bb:a9:2e:b3:c4:2c:cd:3a:05:14:de:16:
                    01:fa:ef:8e:ed:f6:34:c5:a5:16:1e:c0:05:7f:0f:
                    0a:06:8a:e9:97:39:28:76:91:eb:04:14:09:91:3d:
                    ec:d0:d2:c0:eb:8f:32:f0:68:5f:c6:9e:70:9e:37:
                    b3:85:7e:77:79:4a:44:4c:4d:84:c2:b7:dd:10:77:
                    68:88:c8:f7:73:e3:4f:fa:4d:9b:db:04:3a:d3:ce:
                    20:9c:59:17:bd:bd:8d:22:0d:da:bf:f5:20:f3:d4:
                    5d:0d
                Exponent: 65537 (0x10001)
        X509v3 extensions:
            X509v3 Subject Key Identifier: 
                08:64:AE:0D:62:56:DF:4F:65:90:2D:C8:48:58:6D:91:1A:E4:46:0F
            X509v3 Authority Key Identifier: 
                keyid:08:64:AE:0D:62:56:DF:4F:65:90:2D:C8:48:58:6D:91:1A:E4:46:0F

            X509v3 Basic Constraints: critical
                CA:TRUE
    Signature Algorithm: sha256WithRSAEncryption
         04:99:52:d5:19:5e:63:f2:d0:a3:67:49:4c:00:99:64:f0:67:
         da:42:88:2f:b4:2c:cf:6c:41:6b:a2:17:a0:46:aa:4d:b5:c6:
         17:05:e2:de:aa:47:6e:66:d1:cd:46:40:90:59:cc:67:cf:86:
         cd:c5:7f:56:39:33:c6:80:ef:7e:cf:db:47:07:a7:8e:3c:b2:
         e2:a7:ff:92:d1:ea:2e:fa:f5:21:c2:07:d4:02:41:f9:8e:1b:
         13:af:0e:4a:89:eb:b9:cf:39:e2:24:00:fb:aa:43:5a:53:16:
         d5:26:79:0d:4f:cd:f0:e7:54:e3:ea:2c:b5:50:7e:58:0d:59:
         65:48:e8:e4:b1:eb:a7:97:1a:a0:7f:9b:1c:28:eb:7a:78:65:
         3f:95:a8:98:f7:f1:43:92:3d:8a:7c:39:27:58:44:64:87:ba:
         44:58:7c:3d:b6:c7:8e:84:54:1b:22:74:26:e4:05:54:f0:90:
         e9:9e:f4:64:49:d3:93:8d:4b:12:9b:c1:41:05:9a:04:5c:53:
         a9:b2:07:75:04:a4:19:2d:f1:ce:c1:fe:db:b5:69:8d:da:f0:
         90:11:4b:33:4f:0a:16:9a:fd:82:50:18:b3:76:2c:0a:5f:b4:
         e2:c0:0f:9a:2e:a6:fc:cb:b7:46:0a:22:33:ad:61:f3:69:07:
         8d:15:55:22
-----BEGIN CERTIFICATE-----
MIIDuzCCAqOgAwIBAgIUP0rF4fsudVl3db0+XzU4rzpC8SIwDQYJKoZIhvcNAQEL
BQAwbTELMAkGA1UEBhMCVVMxDDAKBgNVBAgMA2FiYzENMAsGA1UECgwEdGVzdDEN
MAsGA1UECwwEbWluZTEPMA0GA1UEAwwGUm9vdENBMSEwHwYJKoZIhvcNAQkBFhJy
b290Y2FAZXhhbXBsZS5vcmcwHhcNMjIwMTA0MjAyNzU5WhcNMjUwMTAzMjAyNzU5
WjBtMQswCQYDVQQGEwJVUzEMMAoGA1UECAwDYWJjMQ0wCwYDVQQKDAR0ZXN0MQ0w
CwYDVQQLDARtaW5lMQ8wDQYDVQQDDAZSb290Q0ExITAfBgkqhkiG9w0BCQEWEnJv
b3RjYUBleGFtcGxlLm9yZzCCASIwDQYJKoZIhvcNAQEBBQADggEPADCCAQoCggEB
AN87gY6gL3qCE9Dc1sGWFThlsrPrBMEp5ZrbpbyxvgcHeL4KkHxcMhShzlA5oqix
gWrQB8o8q/zMDNCn9Z7zQyP7nF6cmulugHw87kbzKa51EhDrXyU/ka2UlDQzA7eD
fMfA9cZ/suDqiaxtC4ysC9+MLF3bXpRCz+GYqUx+I+BJHbCsTRQ4LApoC+ISWvfn
9BwKiP3lfY+eu6kus8QszToFFN4WAfrvju32NMWlFh7ABX8PCgaK6Zc5KHaR6wQU
CZE97NDSwOuPMvBoX8aecJ43s4V+d3lKRExNhMK33RB3aIjI93PjT/pNm9sEOtPO
IJxZF729jSIN2r/1IPPUXQ0CAwEAAaNTMFEwHQYDVR0OBBYEFAhkrg1iVt9PZZAt
yEhYbZEa5EYPMB8GA1UdIwQYMBaAFAhkrg1iVt9PZZAtyEhYbZEa5EYPMA8GA1Ud
EwEB/wQFMAMBAf8wDQYJKoZIhvcNAQELBQADggEBAASZUtUZXmPy0KNnSUwAmWTw
Z9pCiC+0LM9sQWuiF6BGqk21xhcF4t6qR25m0c1GQJBZzGfPhs3Ff1Y5M8aA737P
20cHp448suKn/5LR6i769SHCB9QCQfmOGxOvDkqJ67nPOeIkAPuqQ1pTFtUmeQ1P
zfDnVOPqLLVQflgNWWVI6OSx66eXGqB/mxwo63p4ZT+VqJj38UOSPYp8OSdYRGSH
ukRYfD22x46EVBsidCbkBVTwkOme9GRJ05ONSxKbwUEFmgRcU6myB3UEpBkt8c7B
/tu1aY3a8JARSzNPChaa/YJQGLN2LApftOLAD5oupvzLt0YKIjOtYfNpB40VVSI=
-----END CERTIFICATE-----
Certificate:
    Data:
        Version: 3 (0x2)
        Serial Number:
            3f:4a:c5:e1:fb:2e:75:59:77:75:bd:3e:5f:35:38:af:3a:42:f1:23
        Signature Algorithm: sha256WithRSAEncryption
        Issuer: C=US, ST=abc, O=test, OU=mine, CN=RootCA/emailAddress=rootca@example.org
        Validity
            Not Before: Jan  4 20:27:59 2022 GMT
            Not After : Jan  4 20:27:59 2023 GMT
        Subject: C=US, ST=abc, L=abc, O=test, OU=mine, CN=CA/emailAddress=ca@example.org
        Subject Public Key Info:
            Public Key Algorithm: rsaEncryption
                RSA Public-Key: (2048 bit)
                Modulus:
                    00:a8:2c:63:59:31:79:c7:c6:d7:a6:05:3f:a4:d4:
                    f3:f8:5f:6e:55:b0:47:00:23:cb:69:f4:84:ec:75:
                    76:49:53:29:80:3f:4a:04:e8:01:69:82:f7:62:be:
                    af:c8:69:ae:c4:a5:02:f5:c6:2d:bf:42:70:76:9b:
                    f8:0d:df:80:43:9b:b7:8f:ac:52:54:73:30:24:97:
                    11:77:67:9c:bc:97:e2:f6:58:7c:7d:36:08:88:d2:
                    e5:e5:a1:e8:04:ec:b0:7b:9b:67:6e:7a:ca:60:d3:
                    9f:3f:47:63:d9:0b:ce:bb:70:0e:42:1b:3b:5c:39:
                    81:0f:35:aa:47:7c:43:1a:20:fd:52:6c:4a:9b:41:
                    5b:cc:b7:78:6f:2e:42:82:cb:fb:21:04:ca:dd:63:
                    28:ad:a5:cd:60:f6:48:0d:ac:45:1f:81:d8:20:28:
                    a5:2a:33:14:23:c3:fd:c6:ae:c1:97:65:af:8c:09:
                    85:59:15:16:a7:ad:73:44:b5:02:e0:ba:60:a5:15:
                    06:e0:43:99:dd:8e:fc:c8:0c:3f:c2:b4:ab:3a:aa:
                    c2:b4:b7:6f:7a:a1:ea:a3:ad:a3:e7:c4:fc:b1:d9:
                    c1:c2:17:65:69:97:94:00:60:73:07:6f:be:17:dc:
                    53:0f:b1:d7:31:4e:6f:67:29:8c:46:75:a9:f3:4e:
                    2c:bf
                Exponent: 65537 (0x10001)
        X509v3 extensions:
            X509v3 Subject Key Identifier: 
                0C:9C:66:E1:94:05:DD:56:AA:03:51:A6:85:48:FC:E6:95:7A:2A:D2
            X509v3 Authority Key Identifier: 
                keyid:08:64:AE:0D:62:56:DF:4F:65:90:2D:C8:48:58:6D:91:1A:E4:46:0F

            X509v3 Basic Constraints: critical
                CA:TRUE
    Signature Algorithm: sha256WithRSAEncryption
         46:c7:fd:a1:c9:ca:34:c9:00:2f:99:91:25:5f:a5:86:71:ce:
         2e:44:e9:2d:48:7c:12:16:c6:9b:a8:ff:10:9e:d7:4e:cb:a1:
         77:0e:c3:d8:b3:93:1d:2c:ad:4a:46:9b:39:dc:88:b9:fd:6c:
         64:c3:81:53:3f:78:58:8a:18:df:96:41:9f:00:ff:11:f2:cc:
         07:0d:34:13:5b:21:d9:b3:c6:b6:47:81:60:04:97:97:0d:80:
         98:a6:07:1f:c4:62:f3:b0:85:cf:f2:6d:44:4f:4c:43:be:83:
         e5:95:4c:c0:e7:d7:05:50:7d:66:e4:bb:39:c0:66:94:c3:dc:
         9b:76:2b:a6:1d:77:fa:f2:53:5c:76:06:a2:97:91:71:be:ee:
         4a:cf:81:d8:78:69:72:7e:79:99:e4:00:4f:e1:0f:07:4d:dd:
         6d:2f:e1:61:18:66:d3:c5:41:89:e3:72:8e:8b:03:a4:61:81:
         90:f8:e6:e1:7f:e2:59:00:51:68:57:de:ae:cf:a3:30:87:76:
         99:ec:ac:e5:d6:9c:69:97:7d:ec:e7:e0:15:a0:66:e5:4e:ed:
         cb:d2:aa:b7:fa:8b:68:80:f6:d5:85:90:7c:7d:4e:00:26:9f:
         80:d8:4f:d7:fc:6a:a2:53:a9:da:36:75:e2:8e:b0:03:b3:0a:
         17:9a:5f:44
-----BEGIN CERTIFICATE-----
MIIDwTCCAqmgAwIBAgIUP0rF4fsudVl3db0+XzU4rzpC8SMwDQYJKoZIhvcNAQEL
BQAwbTELMAkGA1UEBhMCVVMxDDAKBgNVBAgMA2FiYzENMAsGA1UECgwEdGVzdDEN
MAsGA1UECwwEbWluZTEPMA0GA1UEAwwGUm9vdENBMSEwHwYJKoZIhvcNAQkBFhJy
b290Y2FAZXhhbXBsZS5vcmcwHhcNMjIwMTA0MjAyNzU5WhcNMjMwMTA0MjAyNzU5
WjBzMQswCQYDVQQGEwJVUzEMMAoGA1UECAwDYWJjMQwwCgYDVQQHDANhYmMxDTAL
BgNVBAoMBHRlc3QxDTALBgNVBAsMBG1pbmUxCzAJBgNVBAMMAkNBMR0wGwYJKoZI
hvcNAQkBFg5jYUBleGFtcGxlLm9yZzCCASIwDQYJKoZIhvcNAQEBBQADggEPADCC
AQoCggEBAKgsY1kxecfG16YFP6TU8/hfblWwRwAjy2n0hOx1dklTKYA/SgToAWmC
92K+r8hprsSlAvXGLb9CcHab+A3fgEObt4+sUlRzMCSXEXdnnLyX4vZYfH02CIjS
5eWh6ATssHubZ256ymDTnz9HY9kLzrtwDkIbO1w5gQ81qkd8Qxog/VJsSptBW8y3
eG8uQoLL+yEEyt1jKK2lzWD2SA2sRR+B2CAopSozFCPD/cauwZdlr4wJhVkVFqet
c0S1AuC6YKUVBuBDmd2O/MgMP8K0qzqqwrS3b3qh6qOto+fE/LHZwcIXZWmXlABg
cwdvvhfcUw+x1zFOb2cpjEZ1qfNOLL8CAwEAAaNTMFEwHQYDVR0OBBYEFAycZuGU
Bd1WqgNRpoVI/OaVeirSMB8GA1UdIwQYMBaAFAhkrg1iVt9PZZAtyEhYbZEa5EYP
MA8GA1UdEwEB/wQFMAMBAf8wDQYJKoZIhvcNAQELBQADggEBAEbH/aHJyjTJAC+Z
kSVfpYZxzi5E6S1IfBIWxpuo/xCe107LoXcOw9izkx0srUpGmznciLn9bGTDgVM/
eFiKGN+WQZ8A/xHyzAcNNBNbIdmzxrZHgWAEl5cNgJimBx/EYvOwhc/ybURPTEO+
g+WVTMDn1wVQfWbkuznAZpTD3Jt2K6Ydd/ryU1x2BqKXkXG+7krPgdh4aXJ+eZnk
AE/hDwdN3W0v4WEYZtPFQYnjco6LA6RhgZD45uF/4lkAUWhX3q7PozCHdpnsrOXW
nGmXfezn4BWgZuVO7cvSqrf6i2iA9tWFkHx9TgAmn4DYT9f8aqJTqdo2deKOsAOz
CheaX0Q=
-----END CERTIFICATE-----
