Certificate:
    Data:
        Version: 3 (0x2)
        Serial Number:
            3f:4a:c5:e1:fb:2e:75:59:77:75:bd:3e:5f:35:38:af:3a:42:f1:23
        Signature Algorithm: sha256WithRSAEncryption
        Issuer: C=US, ST=abc, O=test, OU=mine, CN=RootCA/emailAddress=rootca@example.org
        Validity
            Not Before: Jan  4 20:27:59 2022 GMT
            Not After : Jan  4 20:27:59 2023 GMT
        Subject: C=US, ST=abc, L=abc, O=test, OU=mine, CN=CA/emailAddress=ca@example.org
        Subject Public Key Info:
            Public Key Algorithm: rsaEncryption
                RSA Public-Key: (2048 bit)
                Modulus:
                    00:a8:2c:63:59:31:79:c7:c6:d7:a6:05:3f:a4:d4:
                    f3:f8:5f:6e:55:b0:47:00:23:cb:69:f4:84:ec:75:
                    76:49:53:29:80:3f:4a:04:e8:01:69:82:f7:62:be:
                    af:c8:69:ae:c4:a5:02:f5:c6:2d:bf:42:70:76:9b:
                    f8:0d:df:80:43:9b:b7:8f:ac:52:54:73:30:24:97:
                    11:77:67:9c:bc:97:e2:f6:58:7c:7d:36:08:88:d2:
                    e5:e5:a1:e8:04:ec:b0:7b:9b:67:6e:7a:ca:60:d3:
                    9f:3f:47:63:d9:0b:ce:bb:70:0e:42:1b:3b:5c:39:
                    81:0f:35:aa:47:7c:43:1a:20:fd:52:6c:4a:9b:41:
                    5b:cc:b7:78:6f:2e:42:82:cb:fb:21:04:ca:dd:63:
                    28:ad:a5:cd:60:f6:48:0d:ac:45:1f:81:d8:20:28:
                    a5:2a:33:14:23:c3:fd:c6:ae:c1:97:65:af:8c:09:
                    85:59:15:16:a7:ad:73:44:b5:02:e0:ba:60:a5:15:
                    06:e0:43:99:dd:8e:fc:c8:0c:3f:c2:b4:ab:3a:aa:
                    c2:b4:b7:6f:7a:a1:ea:a3:ad:a3:e7:c4:fc:b1:d9:
                    c1:c2:17:65:69:97:94:00:60:73:07:6f:be:17:dc:
                    53:0f:b1:d7:31:4e:6f:67:29:8c:46:75:a9:f3:4e:
                    2c:bf
                Exponent: 65537 (0x10001)
        X509v3 extensions:
            X509v3 Subject Key Identifier: 
                0C:9C:66:E1:94:05:DD:56:AA:03:51:A6:85:48:FC:E6:95:7A:2A:D2
            X509v3 Authority Key Identifier: 
                keyid:08:64:AE:0D:62:56:DF:4F:65:90:2D:C8:48:58:6D:91:1A:E4:46:0F

            X509v3 Basic Constraints: critical
                CA:TRUE
    Signature Algorithm: sha256WithRSAEncryption
         46:c7:fd:a1:c9:ca:34:c9:00:2f:99:91:25:5f:a5:86:71:ce:
         2e:44:e9:2d:48:7c:12:16:c6:9b:a8:ff:10:9e:d7:4e:cb:a1:
         77:0e:c3:d8:b3:93:1d:2c:ad:4a:46:9b:39:dc:88:b9:fd:6c:
         64:c3:81:53:3f:78:58:8a:18:df:96:41:9f:00:ff:11:f2:cc:
         07:0d:34:13:5b:21:d9:b3:c6:b6:47:81:60:04:97:97:0d:80:
         98:a6:07:1f:c4:62:f3:b0:85:cf:f2:6d:44:4f:4c:43:be:83:
         e5:95:4c:c0:e7:d7:05:50:7d:66:e4:bb:39:c0:66:94:c3:dc:
         9b:76:2b:a6:1d:77:fa:f2:53:5c:76:06:a2:97:91:71:be:ee:
         4a:cf:81:d8:78:69:72:7e:79:99:e4:00:4f:e1:0f:07:4d:dd:
         6d:2f:e1:61:18:66:d3:c5:41:89:e3:72:8e:8b:03:a4:61:81:
         90:f8:e6:e1:7f:e2:59:00:51:68:57:de:ae:cf:a3:30:87:76:
         99:ec:ac:e5:d6:9c:69:97:7d:ec:e7:e0:15:a0:66:e5:4e:ed:
         cb:d2:aa:b7:fa:8b:68:80:f6:d5:85:90:7c:7d:4e:00:26:9f:
         80:d8:4f:d7:fc:6a:a2:53:a9:da:36:75:e2:8e:b0:03:b3:0a:
         17:9a:5f:44
-----BEGIN CERTIFICATE-----
MIIDwTCCAqmgAwIBAgIUP0rF4fsudVl3db0+XzU4rzpC8SMwDQYJKoZIhvcNAQEL
BQAwbTELMAkGA1UEBhMCVVMxDDAKBgNVBAgMA2FiYzENMAsGA1UECgwEdGVzdDEN
MAsGA1UECwwEbWluZTEPMA0GA1UEAwwGUm9vdENBMSEwHwYJKoZIhvcNAQkBFhJy
b290Y2FAZXhhbXBsZS5vcmcwHhcNMjIwMTA0MjAyNzU5WhcNMjMwMTA0MjAyNzU5
WjBzMQswCQYDVQQGEwJVUzEMMAoGA1UECAwDYWJjMQwwCgYDVQQHDANhYmMxDTAL
BgNVBAoMBHRlc3QxDTALBgNVBAsMBG1pbmUxCzAJBgNVBAMMAkNBMR0wGwYJKoZI
hvcNAQkBFg5jYUBleGFtcGxlLm9yZzCCASIwDQYJKoZIhvcNAQEBBQADggEPADCC
AQoCggEBAKgsY1kxecfG16YFP6TU8/hfblWwRwAjy2n0hOx1dklTKYA/SgToAWmC
92K+r8hprsSlAvXGLb9CcHab+A3fgEObt4+sUlRzMCSXEXdnnLyX4vZYfH02CIjS
5eWh6ATssHubZ256ymDTnz9HY9kLzrtwDkIbO1w5gQ81qkd8Qxog/VJsSptBW8y3
eG8uQoLL+yEEyt1jKK2lzWD2SA2sRR+B2CAopSozFCPD/cauwZdlr4wJhVkVFqet
c0S1AuC6YKUVBuBDmd2O/MgMP8K0qzqqwrS3b3qh6qOto+fE/LHZwcIXZWmXlABg
cwdvvhfcUw+x1zFOb2cpjEZ1qfNOLL8CAwEAAaNTMFEwHQYDVR0OBBYEFAycZuGU
Bd1WqgNRpoVI/OaVeirSMB8GA1UdIwQYMBaAFAhkrg1iVt9PZZAtyEhYbZEa5EYP
MA8GA1UdEwEB/wQFMAMBAf8wDQYJKoZIhvcNAQELBQADggEBAEbH/aHJyjTJAC+Z
kSVfpYZxzi5E6S1IfBIWxpuo/xCe107LoXcOw9izkx0srUpGmznciLn9bGTDgVM/
eFiKGN+WQZ8A/xHyzAcNNBNbIdmzxrZHgWAEl5cNgJimBx/EYvOwhc/ybURPTEO+
g+WVTMDn1wVQfWbkuznAZpTD3Jt2K6Ydd/ryU1x2BqKXkXG+7krPgdh4aXJ+eZnk
AE/hDwdN3W0v4WEYZtPFQYnjco6LA6RhgZD45uF/4lkAUWhX3q7PozCHdpnsrOXW
nGmXfezn4BWgZuVO7cvSqrf6i2iA9tWFkHx9TgAmn4DYT9f8aqJTqdo2deKOsAOz
CheaX0Q=
-----END CERTIFICATE-----
